; Function Attrs: nounwind uwtable
define hidden void @zim_PDO_inTransaction(ptr noundef readonly captures(none) %0, ptr noundef writeonly captures(none) %1) #0 {
  %3 = getelementptr inbounds nuw i8, ptr %0, i64 32
  %4 = load ptr, ptr %3, align 8, !tbaa !4
  %5 = getelementptr i8, ptr %4, i64 -8
  %.val = load ptr, ptr %5, align 8, !tbaa !90
  %6 = getelementptr inbounds nuw i8, ptr %0, i64 44
  %7 = load i32, ptr %6, align 4, !tbaa !4
  %.not = icmp eq i32 %7, 0
  br i1 %.not, label %9, label %8, !prof !66

8:                                                ; preds = %2
  tail call void @zend_wrong_parameters_none_error() #13
  br label %33

9:                                                ; preds = %2
  %10 = getelementptr inbounds nuw i8, ptr %.val, i64 120
  %11 = load ptr, ptr %10, align 8, !tbaa !106
  %.not6 = icmp eq ptr %11, null
  br i1 %.not6, label %12, label %20

12:                                               ; preds = %9
  %13 = getelementptr inbounds nuw i8, ptr %4, i64 16
  %14 = load ptr, ptr %13, align 8, !tbaa !119
  %15 = getelementptr inbounds nuw i8, ptr %14, i64 8
  %16 = load ptr, ptr %15, align 8, !tbaa !79
  %17 = getelementptr inbounds nuw i8, ptr %16, i64 24
  tail call void (ptr, ptr, ...) @zend_throw_error(ptr noundef null, ptr noundef nonnull @.str.24, ptr noundef nonnull %17) #13
  %18 = load ptr, ptr getelementptr inbounds nuw (i8, ptr @executor_globals, i64 960), align 8, !tbaa !64
  %19 = icmp ne ptr %18, null
  tail call void @llvm.assume(i1 %19)
  br label %33

20:                                               ; preds = %9
  %21 = load ptr, ptr %.val, align 8, !tbaa !59
  %22 = getelementptr inbounds nuw i8, ptr %21, i64 112
  %23 = load ptr, ptr %22, align 8, !tbaa !127
  %.not.i = icmp eq ptr %23, null
  br i1 %.not.i, label %26, label %24

24:                                               ; preds = %20
  %25 = tail call zeroext i1 %23(ptr noundef nonnull %.val) #13
  br label %pdo_is_in_transaction.exit

26:                                               ; preds = %20
  %27 = getelementptr inbounds nuw i8, ptr %.val, i64 32
  %28 = load i32, ptr %27, align 8
  %29 = and i32 %28, 16
  %30 = icmp ne i32 %29, 0
  br label %pdo_is_in_transaction.exit

pdo_is_in_transaction.exit:                       ; preds = %24, %26
  %.0.i = phi i1 [ %25, %24 ], [ %30, %26 ]
  %31 = select i1 %.0.i, i32 3, i32 2
  %32 = getelementptr inbounds nuw i8, ptr %1, i64 8
  store i32 %31, ptr %32, align 8, !tbaa !4
  br label %33

33:                                               ; preds = %pdo_is_in_transaction.exit, %12, %8
  ret void
}